; Function Attrs: nounwind sspstrong uwtable
define internal range(i64 1, 0) i64 @proc_get_pid(i64 %0) #1 {
  %2 = load i32, ptr @cached_pid, align 4, !tbaa !60
  %.not.i = icmp eq i32 %2, 0
  br i1 %.not.i, label %3, label %get_pid.exit, !prof !100

3:                                                ; preds = %1
  %4 = tail call i32 @getpid() #27
  store i32 %4, ptr @cached_pid, align 4, !tbaa !60
  br label %get_pid.exit

get_pid.exit:                                     ; preds = %1, %3
  %5 = phi i32 [ %4, %3 ], [ %2, %1 ]
  %6 = sext i32 %5 to i64
  %7 = shl nsw i64 %6, 1
  %8 = or disjoint i64 %7, 1
  ret i64 %8
}